Certificate:
    Data:
        Version: 3 (0x2)
        Serial Number:
            74:e4:27:04:72:ad:1f:c9:49:f6:0d:4b:ba:ed:b5:0a:f0:82:8f:6b
        Signature Algorithm: sha256WithRSAEncryption
        Issuer: C=US, ST=WA, L=Tacoma, O=Tinghus, CN=Root CA
        Validity
            Not Before: Apr 14 22:44:08 2023 GMT
            Not After : Apr 11 22:44:08 2033 GMT
        Subject: C=US, ST=WA, L=Tacoma, O=Tinghus, CN=Intermediate CA
        Subject Public Key Info:
            Public Key Algorithm: rsaEncryption
                Public-Key: (2048 bit)
                Modulus:
                    00:ad:10:01:94:4b:d9:69:16:1c:b0:c9:b2:a9:20:
                    8f:7c:18:d2:65:a4:56:88:5f:1b:a4:c7:63:ca:cc:
                    45:5f:cd:57:d2:c9:45:df:b5:2e:f8:00:b3:59:30:
                    de:4f:88:3f:41:68:85:6f:cb:2d:bd:31:1f:de:eb:
                    f9:c9:88:41:5d:1f:5a:67:3a:2e:79:81:7c:2e:1a:
                    af:2d:86:ab:ad:d9:78:e8:aa:b5:d9:e3:69:72:8a:
                    2a:f8:ce:80:f4:32:45:08:2c:a2:1f:cf:b8:99:e9:
                    5f:42:ba:18:7b:c9:2a:9f:54:10:49:a7:d9:94:c1:
                    4f:96:fe:12:fd:63:4e:5d:a3:7d:a0:7d:33:99:28:
                    50:77:f1:36:6d:c5:67:9a:9d:22:22:1e:64:33:9a:
                    bb:f3:1b:be:29:b2:dd:b4:e6:ca:50:e6:45:07:a5:
                    c7:0e:0f:29:7f:f3:8f:62:c6:8b:93:7c:6d:02:de:
                    e7:f8:dc:fa:8f:70:ec:4a:4c:87:f3:6c:7a:55:05:
                    19:fe:71:98:79:c4:79:a8:9b:f6:77:82:5b:25:9a:
                    8f:0a:f7:51:fc:ff:29:07:a2:89:a3:fe:7d:26:2c:
                    dc:5a:1c:72:04:c2:ec:33:fd:ed:04:f8:27:85:90:
                    2e:9e:25:01:16:2c:b7:a1:46:bf:db:17:8f:5b:5c:
                    80:77
                Exponent: 65537 (0x10001)
        X509v3 extensions:
            X509v3 Subject Key Identifier: 
                7B:14:FB:1B:B4:A0:09:30:C8:81:BC:E1:01:32:67:D0:68:A8:A3:D1
            X509v3 Authority Key Identifier: 
                CF:26:88:04:FA:39:E2:07:3F:3E:A6:7A:9D:0E:17:B6:A6:7F:10:59
            X509v3 Basic Constraints: critical
                CA:TRUE, pathlen:0
            X509v3 Key Usage: critical
                Digital Signature, Certificate Sign, CRL Sign
            X509v3 CRL Distribution Points: 
                Full Name:
                  URI:http://crl.tinghus.net/root_crl.der
            Authority Information Access: 
                OCSP - URI:http://caocsp.tinghus.net/
    Signature Algorithm: sha256WithRSAEncryption
    Signature Value:
        0d:c0:97:02:e1:1e:9c:d5:8d:59:58:00:a7:d0:23:5c:09:3f:
        46:c7:93:b8:b9:6c:81:6a:31:d4:6c:91:1a:97:c0:8c:74:e7:
        ee:a2:2f:a2:ae:25:8d:99:ae:3b:df:f6:db:65:c3:4a:04:11:
        fe:bc:5f:95:0b:2e:2a:58:b6:25:2a:18:26:6c:ca:77:5d:a0:
        6e:c4:90:68:87:19:6c:64:d1:31:9a:72:95:12:87:9b:f0:a4:
        60:e1:e2:37:e2:a3:75:08:e0:7c:6f:62:d4:42:22:f8:f3:68:
        c4:5b:8e:45:b0:11:f4:c7:83:94:04:2f:53:23:53:1e:16:82:
        02:f0:3b:bb:bd:f5:0c:98:cd:7d:af:e4:a0:68:64:92:c4:2a:
        ab:a9:bd:15:59:1f:b0:69:03:9d:67:98:fe:c2:9e:53:2e:a1:
        88:9c:7f:6e:13:94:58:fc:d1:37:d0:13:e6:a9:fb:b3:45:71:
        f6:33:7a:d3:67:22:60:bf:1e:99:46:ef:23:b1:06:3f:4b:51:
        b4:e2:a6:f9:9b:f4:f5:f2:14:b1:86:22:ff:7b:d1:05:27:a9:
        56:fe:14:38:49:f3:4c:e4:4e:ba:7f:03:c7:01:01:c1:f8:cb:
        df:a4:c8:23:d6:52:ac:47:64:1d:a9:a1:48:20:50:dd:09:ca:
        66:1b:44:d7
-----BEGIN CERTIFICATE-----
MIIECjCCAvKgAwIBAgIUdOQnBHKtH8lJ9g1Luu21CvCCj2swDQYJKoZIhvcNAQEL
BQAwTzELMAkGA1UEBhMCVVMxCzAJBgNVBAgMAldBMQ8wDQYDVQQHDAZUYWNvbWEx
EDAOBgNVBAoMB1RpbmdodXMxEDAOBgNVBAMMB1Jvb3QgQ0EwHhcNMjMwNDE0MjI0
NDA4WhcNMzMwNDExMjI0NDA4WjBXMQswCQYDVQQGEwJVUzELMAkGA1UECAwCV0Ex
DzANBgNVBAcMBlRhY29tYTEQMA4GA1UECgwHVGluZ2h1czEYMBYGA1UEAwwPSW50
ZXJtZWRpYXRlIENBMIIBIjANBgkqhkiG9w0BAQEFAAOCAQ8AMIIBCgKCAQEArRAB
lEvZaRYcsMmyqSCPfBjSZaRWiF8bpMdjysxFX81X0slF37Uu+ACzWTDeT4g/QWiF
b8stvTEf3uv5yYhBXR9aZzoueYF8LhqvLYarrdl46Kq12eNpcooq+M6A9DJFCCyi
H8+4melfQroYe8kqn1QQSafZlMFPlv4S/WNOXaN9oH0zmShQd/E2bcVnmp0iIh5k
M5q78xu+KbLdtObKUOZFB6XHDg8pf/OPYsaLk3xtAt7n+Nz6j3DsSkyH82x6VQUZ
/nGYecR5qJv2d4JbJZqPCvdR/P8pB6KJo/59JizcWhxyBMLsM/3tBPgnhZAuniUB
Fiy3oUa/2xePW1yAdwIDAQABo4HVMIHSMB0GA1UdDgQWBBR7FPsbtKAJMMiBvOEB
MmfQaKij0TAfBgNVHSMEGDAWgBTPJogE+jniBz8+pnqdDhe2pn8QWTASBgNVHRMB
Af8ECDAGAQH/AgEAMA4GA1UdDwEB/wQEAwIBhjA0BgNVHR8ELTArMCmgJ6AlhiNo
dHRwOi8vY3JsLnRpbmdodXMubmV0L3Jvb3RfY3JsLmRlcjA2BggrBgEFBQcBAQQq
MCgwJgYIKwYBBQUHMAGGGmh0dHA6Ly9jYW9jc3AudGluZ2h1cy5uZXQvMA0GCSqG
SIb3DQEBCwUAA4IBAQANwJcC4R6c1Y1ZWACn0CNcCT9Gx5O4uWyBajHUbJEal8CM
dOfuoi+iriWNma473/bbZcNKBBH+vF+VCy4qWLYlKhgmbMp3XaBuxJBohxlsZNEx
mnKVEoeb8KRg4eI34qN1COB8b2LUQiL482jEW45FsBH0x4OUBC9TI1MeFoIC8Du7
vfUMmM19r+SgaGSSxCqrqb0VWR+waQOdZ5j+wp5TLqGInH9uE5RY/NE30BPmqfuz
RXH2M3rTZyJgvx6ZRu8jsQY/S1G04qb5m/T18hSxhiL/e9EFJ6lW/hQ4SfNM5E66
fwPHAQHB+MvfpMgj1lKsR2QdqaFIIFDdCcpmG0TX
-----END CERTIFICATE-----
Certificate:
    Data:
        Version: 3 (0x2)
        Serial Number:
            5f:fb:de:fd:11:68:42:0e:2d:ad:90:33:3e:94:07:6f:0a:2d:b0:fb
        Signature Algorithm: sha256WithRSAEncryption
        Issuer: C=US, ST=WA, L=Tacoma, O=Tinghus, CN=Root CA
        Validity
            Not Before: Apr 14 22:43:15 2023 GMT
            Not After : Apr 11 22:43:15 2033 GMT
        Subject: C=US, ST=WA, L=Tacoma, O=Tinghus, CN=Root CA
        Subject Public Key Info:
            Public Key Algorithm: rsaEncryption
                Public-Key: (2048 bit)
                Modulus:
                    00:ef:71:de:9d:4c:e5:ea:be:d9:af:4c:3b:09:55:
                    e8:af:a4:db:33:0b:34:f0:2a:39:e0:ab:6d:84:07:
                    5c:50:b1:34:74:8a:88:db:35:9c:39:4a:4d:15:13:
                    ab:61:44:38:40:45:52:51:36:33:d1:15:5a:3b:48:
                    10:ad:e4:67:1f:88:ca:10:29:34:d0:dd:a2:af:64:
                    b4:b5:c7:b8:6c:33:73:60:c6:9c:06:db:3d:07:b8:
                    d0:cf:82:f9:0c:99:6b:41:a6:12:b7:b6:b7:0a:98:
                    71:4e:11:99:c9:cf:0d:21:15:6f:f2:9a:a8:f2:ae:
                    6c:3d:e9:cc:70:5a:cc:ef:fc:c0:eb:ec:d0:4c:1f:
                    78:74:3a:35:3b:37:88:b5:be:94:a4:8b:5d:cd:0f:
                    82:45:b9:8d:ea:21:51:15:29:41:ca:7e:88:b2:02:
                    a9:d1:45:26:92:31:28:d2:2b:16:cf:cf:59:81:17:
                    b3:af:b3:ce:9d:f7:1a:e9:58:e1:e5:8e:71:1c:70:
                    a9:4b:59:9d:34:7a:80:72:22:2c:89:35:5d:4e:18:
                    3b:ea:73:67:fb:30:ca:d4:ae:81:0e:70:42:21:3c:
                    f9:cd:ce:02:77:32:0f:79:74:63:7a:c1:ab:17:e0:
                    a4:7e:a2:24:64:5a:38:f0:e6:04:85:ce:45:04:d4:
                    ba:25
                Exponent: 65537 (0x10001)
        X509v3 extensions:
            X509v3 Subject Key Identifier: 
                CF:26:88:04:FA:39:E2:07:3F:3E:A6:7A:9D:0E:17:B6:A6:7F:10:59
            X509v3 Authority Key Identifier: 
                CF:26:88:04:FA:39:E2:07:3F:3E:A6:7A:9D:0E:17:B6:A6:7F:10:59
            X509v3 Basic Constraints: critical
                CA:TRUE
            X509v3 Key Usage: critical
                Digital Signature, Certificate Sign, CRL Sign
            X509v3 CRL Distribution Points: 
                Full Name:
                  URI:http://crl.tinghus.net/root_crl.der
    Signature Algorithm: sha256WithRSAEncryption
    Signature Value:
        44:e0:66:66:49:de:40:5c:5f:1c:2a:4d:f0:53:ee:84:9a:6b:
        cb:c4:05:a0:b9:0c:44:c1:e4:0b:7d:ac:f3:7f:80:ac:c9:1f:
        4e:50:1b:d5:7a:7c:d0:c6:10:28:36:98:da:e3:13:ec:8d:e9:
        98:9f:c2:d7:7f:56:18:9b:41:38:60:7e:8c:68:cc:f4:b3:7d:
        32:a9:7d:a5:5c:53:90:92:e8:af:95:50:de:54:24:8e:ac:8b:
        dc:da:07:24:e3:c0:7c:d8:74:eb:64:66:48:00:20:83:37:2a:
        61:d0:07:ea:09:dc:8c:9a:97:74:07:9d:4f:64:b6:58:9b:d6:
        b5:7e:a0:1a:22:4e:ed:34:30:5d:e5:ed:96:fa:a5:49:99:75:
        a7:ea:1e:22:32:25:68:c3:fa:8e:14:9a:5b:9f:4b:aa:21:ac:
        60:9d:b3:a5:70:ba:89:92:89:4e:22:c1:b6:f1:61:e9:5a:75:
        c9:2a:e4:87:dd:30:96:e8:5a:9a:5f:fc:44:44:9d:e2:82:e5:
        9d:3a:44:50:f8:fe:9c:3d:01:da:73:7d:b9:52:7b:25:12:6b:
        06:78:39:7b:cd:3a:ba:9e:fb:60:5e:3b:00:8c:46:f4:f4:ec:
        38:55:39:d1:cd:64:a9:c1:0a:7d:f1:6e:a8:5f:f9:76:41:90:
        e7:37:a5:18
-----BEGIN CERTIFICATE-----
MIIDxzCCAq+gAwIBAgIUX/ve/RFoQg4trZAzPpQHbwotsPswDQYJKoZIhvcNAQEL
BQAwTzELMAkGA1UEBhMCVVMxCzAJBgNVBAgMAldBMQ8wDQYDVQQHDAZUYWNvbWEx
EDAOBgNVBAoMB1RpbmdodXMxEDAOBgNVBAMMB1Jvb3QgQ0EwHhcNMjMwNDE0MjI0
MzE1WhcNMzMwNDExMjI0MzE1WjBPMQswCQYDVQQGEwJVUzELMAkGA1UECAwCV0Ex
DzANBgNVBAcMBlRhY29tYTEQMA4GA1UECgwHVGluZ2h1czEQMA4GA1UEAwwHUm9v
dCBDQTCCASIwDQYJKoZIhvcNAQEBBQADggEPADCCAQoCggEBAO9x3p1M5eq+2a9M
OwlV6K+k2zMLNPAqOeCrbYQHXFCxNHSKiNs1nDlKTRUTq2FEOEBFUlE2M9EVWjtI
EK3kZx+IyhApNNDdoq9ktLXHuGwzc2DGnAbbPQe40M+C+QyZa0GmEre2twqYcU4R
mcnPDSEVb/KaqPKubD3pzHBazO/8wOvs0EwfeHQ6NTs3iLW+lKSLXc0PgkW5jeoh
URUpQcp+iLICqdFFJpIxKNIrFs/PWYEXs6+zzp33GulY4eWOcRxwqUtZnTR6gHIi
LIk1XU4YO+pzZ/swytSugQ5wQiE8+c3OAncyD3l0Y3rBqxfgpH6iJGRaOPDmBIXO
RQTUuiUCAwEAAaOBmjCBlzAdBgNVHQ4EFgQUzyaIBPo54gc/PqZ6nQ4XtqZ/EFkw
HwYDVR0jBBgwFoAUzyaIBPo54gc/PqZ6nQ4XtqZ/EFkwDwYDVR0TAQH/BAUwAwEB
/zAOBgNVHQ8BAf8EBAMCAYYwNAYDVR0fBC0wKzApoCegJYYjaHR0cDovL2NybC50
aW5naHVzLm5ldC9yb290X2NybC5kZXIwDQYJKoZIhvcNAQELBQADggEBAETgZmZJ
3kBcXxwqTfBT7oSaa8vEBaC5DETB5At9rPN/gKzJH05QG9V6fNDGECg2mNrjE+yN
6Zifwtd/VhibQThgfoxozPSzfTKpfaVcU5CS6K+VUN5UJI6si9zaByTjwHzYdOtk
ZkgAIIM3KmHQB+oJ3Iyal3QHnU9ktlib1rV+oBoiTu00MF3l7Zb6pUmZdafqHiIy
JWjD+o4UmlufS6ohrGCds6VwuomSiU4iwbbxYeladckq5IfdMJboWppf/EREneKC
5Z06RFD4/pw9AdpzfblSeyUSawZ4OXvNOrqe+2BeOwCMRvT07DhVOdHNZKnBCn3x
bqhf+XZBkOc3pRg=
-----END CERTIFICATE-----
