Certificate:
    Data:
        Version: 3 (0x2)
        Serial Number:
            6c:dd:5f:eb:e3:5b:ee:42:38:64:c5:89:0a:73:54:a7:dd:a7:90:bc
        Signature Algorithm: sha256WithRSAEncryption
        Issuer: C=US, ST=WA, L=Tacoma, O=Tinghus, CN=Intermediate CA
        Validity
            Not Before: Apr 14 22:45:25 2023 GMT
            Not After : Apr 13 22:45:25 2024 GMT
        Subject: C=US, ST=WA, L=Tacoma, O=Tinghus, CN=k8s.tinghus.net
        Subject Public Key Info:
            Public Key Algorithm: rsaEncryption
                Public-Key: (2048 bit)
                Modulus:
                    00:d0:24:1f:1a:2d:26:38:6b:eb:b8:22:db:8e:31:
                    43:64:97:89:88:b4:e9:10:34:71:2c:ad:60:b5:4f:
                    cf:52:cf:17:f6:dd:0b:da:b1:98:dd:36:dd:32:7f:
                    8f:08:d5:87:8a:00:aa:5e:13:7a:5e:6e:06:6f:d4:
                    f2:f3:35:7d:21:40:98:28:e9:72:e7:c0:cd:31:d6:
                    dd:48:6b:c8:64:a3:69:2a:bc:de:69:ad:41:c9:c5:
                    28:43:3c:99:e4:f2:7f:dc:37:6a:e7:09:38:e1:f5:
                    46:98:4b:d0:1c:0a:d1:dd:1d:33:c2:2a:7f:77:3b:
                    39:98:ba:4d:cc:28:cc:65:df:c6:a0:25:9b:25:4f:
                    d7:92:0d:d2:3e:08:c2:63:83:75:65:26:00:67:42:
                    56:8c:b1:31:74:70:5b:54:77:53:7f:bf:d9:2c:b5:
                    5b:08:61:bd:8f:d2:14:63:7d:4d:62:3a:ca:c8:12:
                    ad:2c:a0:be:ce:59:26:af:9d:4e:e5:b6:5c:83:0c:
                    6f:91:d9:ed:12:be:a2:48:80:2b:0f:fd:c5:92:15:
                    b5:3a:0d:31:7d:38:0a:5e:78:6d:43:36:af:a1:74:
                    44:8e:4b:ca:d8:5c:78:82:b8:bf:d7:f6:4d:8d:bf:
                    c7:0f:3e:d0:25:86:6c:83:83:f1:68:7b:c7:ff:7c:
                    dc:6d
                Exponent: 65537 (0x10001)
        X509v3 extensions:
            X509v3 Subject Key Identifier: 
                13:12:46:DB:4F:12:FE:FF:81:A1:0E:FB:93:C8:C6:B4:68:05:1F:4E
            X509v3 Authority Key Identifier: 
                7B:14:FB:1B:B4:A0:09:30:C8:81:BC:E1:01:32:67:D0:68:A8:A3:D1
            X509v3 Basic Constraints: critical
                CA:FALSE
            Netscape Cert Type: 
                SSL Server
            X509v3 Key Usage: critical
                Digital Signature, Key Encipherment
            X509v3 Extended Key Usage: 
                TLS Web Server Authentication
            X509v3 CRL Distribution Points: 
                Full Name:
                  URI:http://crl.tinghus.net/intermediate_crl.der
            Authority Information Access: 
                OCSP - URI:http://ocsp.tinghus.net/
            X509v3 Subject Alternative Name: 
                DNS:localhost, DNS:k8s.tinghus.net, DNS:vbox10.tinghus.net, DNS:vbox11.tinghus.net, DNS:vbox12.tinghus.net, DNS:vbox13.tinghus.net, DNS:vbox14.tinghus.net, IP Address:127.0.0.1
    Signature Algorithm: sha256WithRSAEncryption
    Signature Value:
        63:38:3a:78:33:37:e4:75:33:fd:5b:f2:81:d0:33:bd:58:21:
        ce:95:ff:18:9c:3e:b2:a1:93:cb:6b:6f:7e:47:42:58:49:d2:
        35:5f:30:26:48:f4:4b:29:ae:b6:50:78:64:83:9e:af:c3:2a:
        21:77:12:2a:bf:41:b6:a3:89:17:90:2d:0c:2b:dd:34:c0:81:
        0e:d2:60:d0:d4:c5:3a:48:e2:67:65:86:5d:0a:b1:fc:99:3c:
        c8:9d:22:be:0f:0e:e0:b0:61:05:55:da:e8:3b:48:d7:84:1e:
        e8:71:20:f5:60:5f:20:9e:d3:e5:7e:72:97:ef:72:77:8a:f2:
        b3:74:4d:a8:37:7c:d1:67:43:6f:0d:f6:bd:34:3f:67:55:26:
        8b:87:0b:9a:bd:0f:a2:cc:99:81:61:5d:5f:5c:46:33:94:1b:
        ef:25:e9:5a:1f:19:2a:70:df:40:11:5d:1a:69:0d:58:21:f4:
        0f:72:d9:88:c8:0b:c4:2d:aa:db:0a:2a:28:b9:05:5e:4d:aa:
        df:c7:13:e3:07:96:b5:a7:d4:a2:be:ec:3b:2e:ef:b8:8a:89:
        b5:f1:8a:ad:fc:79:a0:83:b9:e0:69:d5:3d:97:6f:f0:c5:35:
        ae:77:26:01:ce:3f:6a:34:0b:cc:31:75:40:48:c9:6f:50:73:
        95:c8:e1:a5
-----BEGIN CERTIFICATE-----
MIIE0DCCA7igAwIBAgIUbN1f6+Nb7kI4ZMWJCnNUp92nkLwwDQYJKoZIhvcNAQEL
BQAwVzELMAkGA1UEBhMCVVMxCzAJBgNVBAgMAldBMQ8wDQYDVQQHDAZUYWNvbWEx
EDAOBgNVBAoMB1RpbmdodXMxGDAWBgNVBAMMD0ludGVybWVkaWF0ZSBDQTAeFw0y
MzA0MTQyMjQ1MjVaFw0yNDA0MTMyMjQ1MjVaMFcxCzAJBgNVBAYTAlVTMQswCQYD
VQQIDAJXQTEPMA0GA1UEBwwGVGFjb21hMRAwDgYDVQQKDAdUaW5naHVzMRgwFgYD
VQQDDA9rOHMudGluZ2h1cy5uZXQwggEiMA0GCSqGSIb3DQEBAQUAA4IBDwAwggEK
AoIBAQDQJB8aLSY4a+u4ItuOMUNkl4mItOkQNHEsrWC1T89Szxf23QvasZjdNt0y
f48I1YeKAKpeE3pebgZv1PLzNX0hQJgo6XLnwM0x1t1Ia8hko2kqvN5prUHJxShD
PJnk8n/cN2rnCTjh9UaYS9AcCtHdHTPCKn93OzmYuk3MKMxl38agJZslT9eSDdI+
CMJjg3VlJgBnQlaMsTF0cFtUd1N/v9kstVsIYb2P0hRjfU1iOsrIEq0soL7OWSav
nU7ltlyDDG+R2e0SvqJIgCsP/cWSFbU6DTF9OApeeG1DNq+hdESOS8rYXHiCuL/X
9k2Nv8cPPtAlhmyDg/Foe8f/fNxtAgMBAAGjggGSMIIBjjAdBgNVHQ4EFgQUExJG
208S/v+BoQ77k8jGtGgFH04wHwYDVR0jBBgwFoAUexT7G7SgCTDIgbzhATJn0Gio
o9EwDAYDVR0TAQH/BAIwADARBglghkgBhvhCAQEEBAMCBkAwDgYDVR0PAQH/BAQD
AgWgMBMGA1UdJQQMMAoGCCsGAQUFBwMBMDwGA1UdHwQ1MDMwMaAvoC2GK2h0dHA6
Ly9jcmwudGluZ2h1cy5uZXQvaW50ZXJtZWRpYXRlX2NybC5kZXIwNAYIKwYBBQUH
AQEEKDAmMCQGCCsGAQUFBzABhhhodHRwOi8vb2NzcC50aW5naHVzLm5ldC8wgZEG
A1UdEQSBiTCBhoIJbG9jYWxob3N0gg9rOHMudGluZ2h1cy5uZXSCEnZib3gxMC50
aW5naHVzLm5ldIISdmJveDExLnRpbmdodXMubmV0ghJ2Ym94MTIudGluZ2h1cy5u
ZXSCEnZib3gxMy50aW5naHVzLm5ldIISdmJveDE0LnRpbmdodXMubmV0hwR/AAAB
MA0GCSqGSIb3DQEBCwUAA4IBAQBjODp4MzfkdTP9W/KB0DO9WCHOlf8YnD6yoZPL
a29+R0JYSdI1XzAmSPRLKa62UHhkg56vwyohdxIqv0G2o4kXkC0MK900wIEO0mDQ
1MU6SOJnZYZdCrH8mTzInSK+Dw7gsGEFVdroO0jXhB7ocSD1YF8gntPlfnKX73J3
ivKzdE2oN3zRZ0NvDfa9ND9nVSaLhwuavQ+izJmBYV1fXEYzlBvvJelaHxkqcN9A
EV0aaQ1YIfQPctmIyAvELarbCioouQVeTarfxxPjB5a1p9Sivuw7Lu+4iom18Yqt
/Hmgg7ngadU9l2/wxTWudyYBzj9qNAvMMXVASMlvUHOVyOGl
-----END CERTIFICATE-----
