Certificate:
    Data:
        Version: 3 (0x2)
        Serial Number:
            73:11:85:df:b6:da:3b:49:df:44:cd:c9:49:9b:91:2e:d8:5c:b0:35
        Signature Algorithm: sha256WithRSAEncryption
        Issuer: C=US, ST=WA, L=Tacoma, O=Tinghus, CN=Intermediate CA
        Validity
            Not Before: Apr 14 22:45:25 2023 GMT
            Not After : Apr 13 22:45:25 2024 GMT
        Subject: C=US, ST=WA, L=Tacoma, O=Tinghus, CN=k8s-nats-pod.tinghus.net
        Subject Public Key Info:
            Public Key Algorithm: rsaEncryption
                Public-Key: (2048 bit)
                Modulus:
                    00:e2:b6:e9:93:fe:84:9d:51:1f:8f:19:af:8d:3c:
                    37:c1:38:eb:87:f1:0d:42:3e:2f:11:af:05:65:6f:
                    51:18:71:f7:2d:c0:82:0e:59:95:12:9d:6a:14:b6:
                    79:18:31:ee:24:b5:c2:ad:89:3b:b2:07:f3:6d:13:
                    13:d7:e8:5b:6b:aa:f6:93:3a:08:47:be:04:3a:81:
                    98:3f:b4:3a:07:f5:82:eb:ad:97:72:b4:73:af:33:
                    d5:0e:06:fa:19:e0:85:10:33:ab:5b:72:0b:d6:7c:
                    17:c0:3f:81:d9:dd:05:5c:36:4e:f1:c3:56:6d:18:
                    e1:af:09:9a:da:00:bc:01:69:dd:a7:6e:5b:5d:4f:
                    2a:4f:83:f3:a0:a0:4b:75:66:6f:08:3d:c1:de:be:
                    c9:08:84:17:31:7e:2e:3f:07:1a:c7:a5:ab:35:84:
                    c7:9b:a7:46:ed:28:fb:02:b1:5c:65:95:52:08:be:
                    20:ef:cf:65:6e:71:12:1e:7f:ef:1a:8d:4b:cf:0c:
                    19:b5:0b:32:08:78:2e:77:e0:c4:d0:9a:b7:5b:4d:
                    a0:2a:b7:4e:c3:9f:35:e7:75:fb:ad:58:37:8d:90:
                    f4:5b:a4:09:af:24:52:d3:59:90:3d:2f:cf:bb:3c:
                    86:9c:33:0a:f7:a9:6a:af:46:e4:57:2d:0d:a4:31:
                    da:f3
                Exponent: 65537 (0x10001)
        X509v3 extensions:
            X509v3 Subject Key Identifier: 
                60:AC:AC:22:61:DB:D1:DE:6C:DB:15:07:51:15:5A:C4:CE:97:7F:04
            X509v3 Authority Key Identifier: 
                7B:14:FB:1B:B4:A0:09:30:C8:81:BC:E1:01:32:67:D0:68:A8:A3:D1
            X509v3 Basic Constraints: critical
                CA:FALSE
            Netscape Cert Type: 
                SSL Client, SSL Server
            X509v3 Key Usage: critical
                Digital Signature, Non Repudiation, Key Encipherment
            X509v3 Extended Key Usage: 
                TLS Web Server Authentication, TLS Web Client Authentication
            X509v3 CRL Distribution Points: 
                Full Name:
                  URI:http://crl.tinghus.net/intermediate_crl.der
            Authority Information Access: 
                OCSP - URI:http://ocsp.tinghus.net/
            X509v3 Subject Alternative Name: 
                DNS:mybasic-nats-0.mybasic-nats.default.svc.cluster.local, DNS:mybasic-nats-1.mybasic-nats.default.svc.cluster.local, DNS:mybasic-nats-2.mybasic-nats.default.svc.cluster.local, DNS:mybasic-nats-3.mybasic-nats.default.svc.cluster.local, DNS:mybasic-nats-4.mybasic-nats.default.svc.cluster.local, DNS:k8s-nats-pod.tinghus.net
    Signature Algorithm: sha256WithRSAEncryption
    Signature Value:
        97:9e:60:d1:42:0f:d3:74:61:c4:20:fd:2d:59:9f:e7:5c:34:
        c9:b1:e9:14:44:82:b0:d9:f4:8e:1c:fd:26:96:a6:94:29:e4:
        a3:dc:30:c0:e5:67:cd:8d:78:5c:37:f1:77:58:c3:da:16:b0:
        d8:ab:22:40:7f:20:47:b3:44:f0:63:dd:f7:92:1d:eb:27:62:
        1f:81:47:ca:c3:47:79:56:f5:16:8c:98:9b:37:cd:e8:a5:b9:
        53:65:4d:c7:f3:2b:d0:74:3f:8b:21:ac:22:ba:20:29:03:57:
        7a:34:9f:a4:ff:b7:cb:2f:32:a5:61:10:4b:aa:13:1c:0c:24:
        54:91:96:8e:78:11:d8:70:de:a5:c2:5e:1c:72:e6:35:57:b9:
        b8:e6:74:d6:d3:ff:bb:ed:d9:d9:4c:1d:41:0f:d9:c5:b2:c7:
        88:d6:0a:80:fd:f8:af:0b:e0:77:04:6c:da:16:1c:94:5c:3c:
        9e:29:e1:13:1c:9f:35:e4:f1:00:e9:90:6e:9b:69:c4:0b:1a:
        41:a6:e0:7e:fb:fd:c5:68:d2:cd:c6:bd:53:04:84:74:6f:ff:
        7b:fd:94:2a:74:9a:c3:31:2d:c1:26:36:cf:f8:3f:21:c5:9d:
        17:44:b6:df:c2:c5:4b:e6:9d:88:b3:a6:46:d0:03:97:0d:3b:
        88:62:4f:e2
-----BEGIN CERTIFICATE-----
MIIFjTCCBHWgAwIBAgIUcxGF37baO0nfRM3JSZuRLthcsDUwDQYJKoZIhvcNAQEL
BQAwVzELMAkGA1UEBhMCVVMxCzAJBgNVBAgMAldBMQ8wDQYDVQQHDAZUYWNvbWEx
EDAOBgNVBAoMB1RpbmdodXMxGDAWBgNVBAMMD0ludGVybWVkaWF0ZSBDQTAeFw0y
MzA0MTQyMjQ1MjVaFw0yNDA0MTMyMjQ1MjVaMGAxCzAJBgNVBAYTAlVTMQswCQYD
VQQIDAJXQTEPMA0GA1UEBwwGVGFjb21hMRAwDgYDVQQKDAdUaW5naHVzMSEwHwYD
VQQDDBhrOHMtbmF0cy1wb2QudGluZ2h1cy5uZXQwggEiMA0GCSqGSIb3DQEBAQUA
A4IBDwAwggEKAoIBAQDitumT/oSdUR+PGa+NPDfBOOuH8Q1CPi8RrwVlb1EYcfct
wIIOWZUSnWoUtnkYMe4ktcKtiTuyB/NtExPX6FtrqvaTOghHvgQ6gZg/tDoH9YLr
rZdytHOvM9UOBvoZ4IUQM6tbcgvWfBfAP4HZ3QVcNk7xw1ZtGOGvCZraALwBad2n
bltdTypPg/OgoEt1Zm8IPcHevskIhBcxfi4/BxrHpas1hMebp0btKPsCsVxllVII
viDvz2VucRIef+8ajUvPDBm1CzIIeC534MTQmrdbTaAqt07DnzXndfutWDeNkPRb
pAmvJFLTWZA9L8+7PIacMwr3qWqvRuRXLQ2kMdrzAgMBAAGjggJGMIICQjAdBgNV
HQ4EFgQUYKysImHb0d5s2xUHURVaxM6XfwQwHwYDVR0jBBgwFoAUexT7G7SgCTDI
gbzhATJn0Gioo9EwDAYDVR0TAQH/BAIwADARBglghkgBhvhCAQEEBAMCBsAwDgYD
VR0PAQH/BAQDAgXgMB0GA1UdJQQWMBQGCCsGAQUFBwMBBggrBgEFBQcDAjA8BgNV
HR8ENTAzMDGgL6AthitodHRwOi8vY3JsLnRpbmdodXMubmV0L2ludGVybWVkaWF0
ZV9jcmwuZGVyMDQGCCsGAQUFBwEBBCgwJjAkBggrBgEFBQcwAYYYaHR0cDovL29j
c3AudGluZ2h1cy5uZXQvMIIBOgYDVR0RBIIBMTCCAS2CNW15YmFzaWMtbmF0cy0w
Lm15YmFzaWMtbmF0cy5kZWZhdWx0LnN2Yy5jbHVzdGVyLmxvY2FsgjVteWJhc2lj
LW5hdHMtMS5teWJhc2ljLW5hdHMuZGVmYXVsdC5zdmMuY2x1c3Rlci5sb2NhbII1
bXliYXNpYy1uYXRzLTIubXliYXNpYy1uYXRzLmRlZmF1bHQuc3ZjLmNsdXN0ZXIu
bG9jYWyCNW15YmFzaWMtbmF0cy0zLm15YmFzaWMtbmF0cy5kZWZhdWx0LnN2Yy5j
bHVzdGVyLmxvY2FsgjVteWJhc2ljLW5hdHMtNC5teWJhc2ljLW5hdHMuZGVmYXVs
dC5zdmMuY2x1c3Rlci5sb2NhbIIYazhzLW5hdHMtcG9kLnRpbmdodXMubmV0MA0G
CSqGSIb3DQEBCwUAA4IBAQCXnmDRQg/TdGHEIP0tWZ/nXDTJsekURIKw2fSOHP0m
lqaUKeSj3DDA5WfNjXhcN/F3WMPaFrDYqyJAfyBHs0TwY933kh3rJ2IfgUfKw0d5
VvUWjJibN83opblTZU3H8yvQdD+LIawiuiApA1d6NJ+k/7fLLzKlYRBLqhMcDCRU
kZaOeBHYcN6lwl4ccuY1V7m45nTW0/+77dnZTB1BD9nFsseI1gqA/fivC+B3BGza
FhyUXDyeKeETHJ815PEA6ZBum2nECxpBpuB++/3FaNLNxr1TBIR0b/97/ZQqdJrD
MS3BJjbP+D8hxZ0XRLbfwsVL5p2Is6ZG0AOXDTuIYk/i
-----END CERTIFICATE-----
